; Function Attrs: mustprogress nounwind uwtable
define hidden void @_ZNK4llvh23PrettyStackTraceProgram5printERNS_11raw_ostreamE(ptr nocapture noundef nonnull readonly align 8 dereferenceable(32) %this, ptr noundef nonnull align 8 dereferenceable(36) %OS) unnamed_addr #4 align 2 {
entry:
  %OutBufEnd.i5.i = getelementptr inbounds i8, ptr %OS, i64 16
  %0 = load ptr, ptr %OutBufEnd.i5.i, align 8
  %OutBufCur.i6.i = getelementptr inbounds i8, ptr %OS, i64 24
  %1 = load ptr, ptr %OutBufCur.i6.i, align 8
  %sub.ptr.lhs.cast.i7.i = ptrtoint ptr %0 to i64
  %sub.ptr.rhs.cast.i8.i = ptrtoint ptr %1 to i64
  %sub.ptr.sub.i9.i = sub i64 %sub.ptr.lhs.cast.i7.i, %sub.ptr.rhs.cast.i8.i
  %cmp.i.i = icmp ult i64 %sub.ptr.sub.i9.i, 19
  br i1 %cmp.i.i, label %if.then.i.i, label %if.then4.i.i

if.then.i.i:                                      ; preds = %entry
  %call3.i.i = tail call noundef nonnull align 8 dereferenceable(36) ptr @_ZN4llvh11raw_ostream5writeEPKcm(ptr noundef nonnull align 8 dereferenceable(36) %OS, ptr noundef nonnull @.str.1, i64 noundef 19) #15
  br label %_ZN4llvh11raw_ostreamlsEPKc.exit

if.then4.i.i:                                     ; preds = %entry
  tail call void @llvm.memcpy.p0.p0.i64(ptr noundef nonnull align 1 dereferenceable(19) %1, ptr noundef nonnull align 1 dereferenceable(19) @.str.1, i64 19, i1 false)
  %2 = load ptr, ptr %OutBufCur.i6.i, align 8
  %add.ptr.i.i = getelementptr inbounds i8, ptr %2, i64 19
  store ptr %add.ptr.i.i, ptr %OutBufCur.i6.i, align 8
  br label %_ZN4llvh11raw_ostreamlsEPKc.exit

_ZN4llvh11raw_ostreamlsEPKc.exit:                 ; preds = %if.then.i.i, %if.then4.i.i
  %ArgC = getelementptr inbounds i8, ptr %this, i64 16
  %3 = load i32, ptr %ArgC, align 8
  %cmp.not29 = icmp eq i32 %3, 0
  br i1 %cmp.not29, label %for.end, label %for.body.lr.ph

for.body.lr.ph:                                   ; preds = %_ZN4llvh11raw_ostreamlsEPKc.exit
  %ArgV = getelementptr inbounds i8, ptr %this, i64 24
  %4 = zext i32 %3 to i64
  br label %for.body

for.body:                                         ; preds = %for.body.lr.ph, %_ZN4llvh11raw_ostreamlsEc.exit
  %indvars.iv = phi i64 [ 0, %for.body.lr.ph ], [ %indvars.iv.next, %_ZN4llvh11raw_ostreamlsEc.exit ]
  %5 = load ptr, ptr %ArgV, align 8
  %arrayidx = getelementptr inbounds ptr, ptr %5, i64 %indvars.iv
  %6 = load ptr, ptr %arrayidx, align 8
  %tobool.i.not.i = icmp eq ptr %6, null
  br i1 %tobool.i.not.i, label %_ZN4llvh11raw_ostreamlsEPKc.exit19, label %cond.true.i.split.i

cond.true.i.split.i:                              ; preds = %for.body
  %call.i.i5 = tail call i64 @strlen(ptr noundef nonnull dereferenceable(1) %6) #14
  %7 = load ptr, ptr %OutBufEnd.i5.i, align 8
  %8 = load ptr, ptr %OutBufCur.i6.i, align 8
  %sub.ptr.lhs.cast.i7.i8 = ptrtoint ptr %7 to i64
  %sub.ptr.rhs.cast.i8.i9 = ptrtoint ptr %8 to i64
  %sub.ptr.sub.i9.i10 = sub i64 %sub.ptr.lhs.cast.i7.i8, %sub.ptr.rhs.cast.i8.i9
  %cmp.i.i11 = icmp ult i64 %sub.ptr.sub.i9.i10, %call.i.i5
  br i1 %cmp.i.i11, label %if.then.i.i17, label %if.end.i.i12

if.then.i.i17:                                    ; preds = %cond.true.i.split.i
  %call3.i.i18 = tail call noundef nonnull align 8 dereferenceable(36) ptr @_ZN4llvh11raw_ostream5writeEPKcm(ptr noundef nonnull align 8 dereferenceable(36) %OS, ptr noundef nonnull %6, i64 noundef %call.i.i5) #15
  br label %_ZN4llvh11raw_ostreamlsEPKc.exit19

if.end.i.i12:                                     ; preds = %cond.true.i.split.i
  %tobool.not.i.i13 = icmp eq i64 %call.i.i5, 0
  br i1 %tobool.not.i.i13, label %_ZN4llvh11raw_ostreamlsEPKc.exit19, label %if.then4.i.i14

if.then4.i.i14:                                   ; preds = %if.end.i.i12
  tail call void @llvm.memcpy.p0.p0.i64(ptr align 1 %8, ptr nonnull align 1 %6, i64 %call.i.i5, i1 false)
  %9 = load ptr, ptr %OutBufCur.i6.i, align 8
  %add.ptr.i.i15 = getelementptr inbounds i8, ptr %9, i64 %call.i.i5
  store ptr %add.ptr.i.i15, ptr %OutBufCur.i6.i, align 8
  br label %_ZN4llvh11raw_ostreamlsEPKc.exit19

_ZN4llvh11raw_ostreamlsEPKc.exit19:               ; preds = %for.body, %if.then.i.i17, %if.end.i.i12, %if.then4.i.i14
  %phi.call.i16 = phi ptr [ %call3.i.i18, %if.then.i.i17 ], [ %OS, %if.then4.i.i14 ], [ %OS, %if.end.i.i12 ], [ %OS, %for.body ]
  %OutBufCur.i = getelementptr inbounds i8, ptr %phi.call.i16, i64 24
  %10 = load ptr, ptr %OutBufCur.i, align 8
  %OutBufEnd.i = getelementptr inbounds i8, ptr %phi.call.i16, i64 16
  %11 = load ptr, ptr %OutBufEnd.i, align 8
  %cmp.not.i = icmp ult ptr %10, %11
  br i1 %cmp.not.i, label %if.end.i, label %if.then.i

if.then.i:                                        ; preds = %_ZN4llvh11raw_ostreamlsEPKc.exit19
  %call.i = tail call noundef nonnull align 8 dereferenceable(36) ptr @_ZN4llvh11raw_ostream5writeEh(ptr noundef nonnull align 8 dereferenceable(36) %phi.call.i16, i8 noundef zeroext 32) #15
  br label %_ZN4llvh11raw_ostreamlsEc.exit

if.end.i:                                         ; preds = %_ZN4llvh11raw_ostreamlsEPKc.exit19
  %incdec.ptr.i = getelementptr inbounds i8, ptr %10, i64 1
  store ptr %incdec.ptr.i, ptr %OutBufCur.i, align 8
  store i8 32, ptr %10, align 1
  br label %_ZN4llvh11raw_ostreamlsEc.exit

_ZN4llvh11raw_ostreamlsEc.exit:                   ; preds = %if.then.i, %if.end.i
  %indvars.iv.next = add nuw nsw i64 %indvars.iv, 1
  %cmp.not = icmp eq i64 %indvars.iv.next, %4
  br i1 %cmp.not, label %for.end, label %for.body, !llvm.loop !4

for.end:                                          ; preds = %_ZN4llvh11raw_ostreamlsEc.exit, %_ZN4llvh11raw_ostreamlsEPKc.exit
  %12 = load ptr, ptr %OutBufCur.i6.i, align 8
  %13 = load ptr, ptr %OutBufEnd.i5.i, align 8
  %cmp.not.i22 = icmp ult ptr %12, %13
  br i1 %cmp.not.i22, label %if.end.i26, label %if.then.i23

if.then.i23:                                      ; preds = %for.end
  %call.i24 = tail call noundef nonnull align 8 dereferenceable(36) ptr @_ZN4llvh11raw_ostream5writeEh(ptr noundef nonnull align 8 dereferenceable(36) %OS, i8 noundef zeroext 10) #15
  br label %_ZN4llvh11raw_ostreamlsEc.exit28

if.end.i26:                                       ; preds = %for.end
  %incdec.ptr.i27 = getelementptr inbounds i8, ptr %12, i64 1
  store ptr %incdec.ptr.i27, ptr %OutBufCur.i6.i, align 8
  store i8 10, ptr %12, align 1
  br label %_ZN4llvh11raw_ostreamlsEc.exit28

_ZN4llvh11raw_ostreamlsEc.exit28:                 ; preds = %if.then.i23, %if.end.i26
  ret void
}